Certificate:
    Data:
        Version: 3 (0x2)
        Serial Number: 9 (0x9)
    Signature Algorithm: sha1WithRSAEncryption
        Issuer: C=AU, ST=Some-State, O=Internet Widgits Pty Ltd, CN=localhost.localdomain
        Validity
            Not Before: Feb 28 05:32:21 2013 GMT
            Not After : Jul 15 05:32:21 2040 GMT
        Subject: C=AU, ST=Some-State, O=Internet Widgits Pty Ltd, CN=server.localdomain
        Subject Public Key Info:
            Public Key Algorithm: rsaEncryption
                Public-Key: (1024 bit)
                Modulus:
                    00:ab:89:15:0f:99:dc:da:49:c9:de:55:f8:db:cb:
                    9d:00:e5:a7:44:30:2c:90:4e:5d:15:86:15:6b:0f:
                    85:dc:2e:62:4e:c0:ce:cb:74:d5:42:cb:a9:6d:72:
                    0c:e1:a1:8a:f6:19:12:18:ae:0e:41:bc:26:b6:8e:
                    89:47:51:5d:ea:af:00:46:0d:73:39:03:35:12:ec:
                    97:ae:38:fb:42:6e:45:2e:02:17:02:1d:b9:b1:90:
                    c8:99:1c:f1:e5:de:51:35:57:67:7f:81:a9:36:91:
                    eb:6b:65:cc:dc:42:14:6e:35:05:63:18:8c:59:f4:
                    a6:f0:bf:ab:b1:1d:09:8d:a9
                Exponent: 65537 (0x10001)
        X509v3 extensions:
            X509v3 Basic Constraints: 
                CA:FALSE
            Netscape Comment: 
                OpenSSL Generated Certificate
            X509v3 Subject Key Identifier: 
                4F:BD:5C:CB:51:3C:E1:59:04:B1:2F:0B:E3:19:0A:8B:D3:6C:1F:0B
            X509v3 Authority Key Identifier: 
                keyid:38:23:29:49:09:9D:2C:1D:89:8B:46:6E:AD:16:52:3B:2D:35:54:C7

    Signature Algorithm: sha1WithRSAEncryption
         ab:44:01:5f:24:f9:22:17:bb:86:f2:e9:b5:fc:ff:0e:37:f1:
         39:dc:bd:e2:b7:bd:6c:c2:c1:df:2f:d2:e5:ff:a2:71:9e:ae:
         7f:e8:1c:a7:16:2e:ec:4b:d2:1f:4c:29:9d:94:a1:88:94:9a:
         0d:23:a6:7c:fa:ec:3c:19:44:af:ac:ce:39:58:a0:e9:d7:4f:
         f9:28:51:d8:a1:96:da:b1:53:06:33:1c:90:38:72:0b:90:82:
         72:e6:29:b1:48:40:68:ba:26:ca:15:30:d0:17:87:a0:21:44:
         e1:92:91:c4:43:10:90:96:7f:a3:6e:dd:92:73:24:e0:2f:94:
         21:79
-----BEGIN CERTIFICATE-----
MIICuDCCAiGgAwIBAgIBCTANBgkqhkiG9w0BAQUFADBlMQswCQYDVQQGEwJBVTET
MBEGA1UECAwKU29tZS1TdGF0ZTEhMB8GA1UECgwYSW50ZXJuZXQgV2lkZ2l0cyBQ
dHkgTHRkMR4wHAYDVQQDDBVsb2NhbGhvc3QubG9jYWxkb21haW4wHhcNMTMwMjI4
MDUzMjIxWhcNNDAwNzE1MDUzMjIxWjBiMQswCQYDVQQGEwJBVTETMBEGA1UECAwK
U29tZS1TdGF0ZTEhMB8GA1UECgwYSW50ZXJuZXQgV2lkZ2l0cyBQdHkgTHRkMRsw
GQYDVQQDDBJzZXJ2ZXIubG9jYWxkb21haW4wgZ8wDQYJKoZIhvcNAQEBBQADgY0A
MIGJAoGBAKuJFQ+Z3NpJyd5V+NvLnQDlp0QwLJBOXRWGFWsPhdwuYk7Azst01ULL
qW1yDOGhivYZEhiuDkG8JraOiUdRXeqvAEYNczkDNRLsl644+0JuRS4CFwIdubGQ
yJkc8eXeUTVXZ3+BqTaR62tlzNxCFG41BWMYjFn0pvC/q7EdCY2pAgMBAAGjezB5
MAkGA1UdEwQCMAAwLAYJYIZIAYb4QgENBB8WHU9wZW5TU0wgR2VuZXJhdGVkIENl
cnRpZmljYXRlMB0GA1UdDgQWBBRPvVzLUTzhWQSxLwvjGQqL02wfCzAfBgNVHSME
GDAWgBQ4IylJCZ0sHYmLRm6tFlI7LTVUxzANBgkqhkiG9w0BAQUFAAOBgQCrRAFf
JPkiF7uG8um1/P8ON/E53L3it71swsHfL9Ll/6Jxnq5/6BynFi7sS9IfTCmdlKGI
lJoNI6Z8+uw8GUSvrM45WKDp10/5KFHYoZbasVMGMxyQOHILkIJy5imxSEBouibK
FTDQF4egIUThkpHEQxCQln+jbt2ScyTgL5QheQ==
-----END CERTIFICATE-----
-----BEGIN RSA PRIVATE KEY-----
MIICXgIBAAKBgQCriRUPmdzaScneVfjby50A5adEMCyQTl0VhhVrD4XcLmJOwM7L
dNVCy6ltcgzhoYr2GRIYrg5BvCa2jolHUV3qrwBGDXM5AzUS7JeuOPtCbkUuAhcC
HbmxkMiZHPHl3lE1V2d/gak2ketrZczcQhRuNQVjGIxZ9Kbwv6uxHQmNqQIDAQAB
AoGBAKLz/M/vSMEN6/mNDnYuvZ3GjNnYMd18tCzoTZyBCJcccUODInBhMt7bfr57
5ATMY6haNLjBUMXdqaEvUvYvM9lZm13Lqz+8GyzFPE+ixByjtAidxNA/u//lTYvF
PlyMVLbNCWJMeol6nB7I9Ice3W5mjxsVS3RKtR1exb9TWi0BAkEA2oQxL638ZNSB
BvD+hh9L8zlsHoELETBWmzSjaqhIKqhtETILf/BIjBr/YRIriQNWc+5rVKk52yoN
i7kGdviVeQJBAMj1y/2VjrH8wwIXyyEExZ+hi44NTRfAulvV5ORSJR73j+SCQAhY
7MBj3qVtDHh5dNTteuJtqGBOSF1obn63nbECQQCf80udvxmVJQgdcKKewqHxtAK0
gXj8aAm9KlbEZ9ILh6XuhFdumxA/njN5drdvX4YU7lyaaBT1nF61/AYDaArhAkBQ
c77X5ZD8BqIXa2kh7eQkNStGkmKjuL+i1m3NTmmYDSopJE/4R4l4uELBXXfZn147
hFtm3NnEvHJSGuXpix7xAkEAlqXoa073IYPI8MNbZnSxmkPtRq27i0vBpK5VEVH+
YQchHtGIHhJ18HPt5wyC9s3wvmzrWhwnMlrAvgkmsre8qA==
-----END RSA PRIVATE KEY-----
