Certificate:
    Data:
        Version: 3 (0x2)
        Serial Number: 8 (0x8)
    Signature Algorithm: sha1WithRSAEncryption
        Issuer: C=AU, ST=Some-State, O=Internet Widgits Pty Ltd, CN=localhost.localdomain
        Validity
            Not Before: Feb 28 05:23:28 2013 GMT
            Not After : Jul 15 05:23:28 2040 GMT
        Subject: C=AU, ST=Some-State, O=Internet Widgits Pty Ltd, CN=localhost.localdomain
        Subject Public Key Info:
            Public Key Algorithm: rsaEncryption
                Public-Key: (1024 bit)
                Modulus:
                    00:ed:7f:28:19:f3:04:a9:e4:36:3a:ce:07:d1:09:
                    38:38:d9:e0:dd:42:48:88:e5:6e:e7:27:3c:57:96:
                    73:68:53:5a:45:90:18:13:40:29:56:e0:88:fd:7a:
                    72:fc:8a:54:14:1c:fc:6b:60:80:43:e8:d3:00:71:
                    15:67:18:9c:2b:38:8e:f9:cb:a8:4d:5b:15:33:80:
                    27:9f:76:46:27:81:eb:ea:5d:8c:a0:6f:84:cd:ba:
                    e8:a2:5d:a9:e0:28:cc:9a:55:17:55:a5:d0:65:a8:
                    12:42:9d:b7:9a:d1:f9:bf:46:00:43:f7:2e:7d:94:
                    e1:4f:6f:9c:a2:81:32:ab:bf
                Exponent: 65537 (0x10001)
        X509v3 extensions:
            X509v3 Subject Key Identifier: 
                38:23:29:49:09:9D:2C:1D:89:8B:46:6E:AD:16:52:3B:2D:35:54:C7
            X509v3 Authority Key Identifier: 
                keyid:38:23:29:49:09:9D:2C:1D:89:8B:46:6E:AD:16:52:3B:2D:35:54:C7

            X509v3 Basic Constraints: 
                CA:TRUE
    Signature Algorithm: sha1WithRSAEncryption
         80:1b:7c:40:d3:17:32:15:1b:17:d0:d1:85:fd:81:bd:fc:81:
         7c:76:5f:c3:72:8d:cd:ab:cd:fd:71:eb:64:4a:66:0f:5e:18:
         7c:0d:de:99:20:1c:0d:82:01:a2:23:62:02:cf:78:1a:83:1d:
         92:e4:ae:8f:c7:f6:8e:75:cc:f2:6d:e7:07:c3:89:ca:44:5d:
         d7:73:1f:75:48:0a:40:3a:74:5d:63:55:80:a7:76:fd:31:e5:
         fd:48:4b:ac:b0:43:a2:21:c1:62:91:eb:06:7d:79:f6:ff:7b:
         f6:6f:98:18:95:47:87:20:7e:a1:59:00:a0:77:8e:2e:e8:b7:
         75:7c
-----BEGIN CERTIFICATE-----
MIICkDCCAfmgAwIBAgIBCDANBgkqhkiG9w0BAQUFADBlMQswCQYDVQQGEwJBVTET
MBEGA1UECAwKU29tZS1TdGF0ZTEhMB8GA1UECgwYSW50ZXJuZXQgV2lkZ2l0cyBQ
dHkgTHRkMR4wHAYDVQQDDBVsb2NhbGhvc3QubG9jYWxkb21haW4wHhcNMTMwMjI4
MDUyMzI4WhcNNDAwNzE1MDUyMzI4WjBlMQswCQYDVQQGEwJBVTETMBEGA1UECAwK
U29tZS1TdGF0ZTEhMB8GA1UECgwYSW50ZXJuZXQgV2lkZ2l0cyBQdHkgTHRkMR4w
HAYDVQQDDBVsb2NhbGhvc3QubG9jYWxkb21haW4wgZ8wDQYJKoZIhvcNAQEBBQAD
gY0AMIGJAoGBAO1/KBnzBKnkNjrOB9EJODjZ4N1CSIjlbucnPFeWc2hTWkWQGBNA
KVbgiP16cvyKVBQc/GtggEPo0wBxFWcYnCs4jvnLqE1bFTOAJ592RieB6+pdjKBv
hM266KJdqeAozJpVF1Wl0GWoEkKdt5rR+b9GAEP3Ln2U4U9vnKKBMqu/AgMBAAGj
UDBOMB0GA1UdDgQWBBQ4IylJCZ0sHYmLRm6tFlI7LTVUxzAfBgNVHSMEGDAWgBQ4
IylJCZ0sHYmLRm6tFlI7LTVUxzAMBgNVHRMEBTADAQH/MA0GCSqGSIb3DQEBBQUA
A4GBAIAbfEDTFzIVGxfQ0YX9gb38gXx2X8Nyjc2rzf1x62RKZg9eGHwN3pkgHA2C
AaIjYgLPeBqDHZLkro/H9o51zPJt5wfDicpEXddzH3VICkA6dF1jVYCndv0x5f1I
S6ywQ6IhwWKR6wZ9efb/e/ZvmBiVR4cgfqFZAKB3ji7ot3V8
-----END CERTIFICATE-----
